; Function Attrs: nounwind uwtable
define internal fastcc i32 @ftp_state_size_resp(ptr noundef %0, i32 noundef %1, i8 noundef zeroext %2) unnamed_addr #0 {
  %4 = alloca i64, align 8
  %5 = alloca [128 x i8], align 16
  call void @llvm.lifetime.start.p0(i64 8, ptr nonnull %4) #10
  store i64 -1, ptr %4, align 8, !tbaa !147
  %6 = getelementptr inbounds nuw i8, ptr %0, i64 24
  %7 = load ptr, ptr %6, align 8, !tbaa !107
  %8 = getelementptr inbounds nuw i8, ptr %7, i64 1152
  %9 = tail call ptr @Curl_dyn_ptr(ptr noundef nonnull %8) #10
  %10 = icmp eq i32 %1, 213
  br i1 %10, label %11, label %28

11:                                               ; preds = %3
  %12 = load ptr, ptr %6, align 8, !tbaa !107
  %13 = getelementptr inbounds nuw i8, ptr %12, i64 1192
  %14 = load i64, ptr %13, align 8, !tbaa !21
  %15 = getelementptr inbounds nuw i8, ptr %9, i64 4
  %16 = tail call ptr @memchr(ptr noundef nonnull %15, i32 noundef 13, i64 noundef %14) #11
  %.not = icmp eq ptr %16, null
  br i1 %.not, label %.critedge, label %17

17:                                               ; preds = %11
  %18 = getelementptr inbounds i8, ptr %16, i64 -1
  %19 = load i8, ptr %18, align 1, !tbaa !21
  %20 = icmp eq i8 %19, 10
  %21 = getelementptr inbounds i8, ptr %16, i64 -2
  %spec.select = select i1 %20, ptr %21, ptr %18
  br label %22

22:                                               ; preds = %22, %17
  %.140 = phi ptr [ %spec.select, %17 ], [ %23, %22 ]
  %23 = getelementptr inbounds i8, ptr %.140, i64 -1
  %24 = load i8, ptr %23, align 1, !tbaa !21
  %25 = add i8 %24, -48
  %or.cond48 = icmp ult i8 %25, 10
  %26 = icmp ugt ptr %.140, %15
  %or.cond49 = and i1 %26, %or.cond48
  br i1 %or.cond49, label %22, label %.critedge, !llvm.loop !201

.critedge:                                        ; preds = %22, %11
  %.2 = phi ptr [ %15, %11 ], [ %.140, %22 ]
  %27 = call i32 @curlx_strtoofft(ptr noundef nonnull %.2, ptr noundef null, i32 noundef 10, ptr noundef nonnull %4) #10
  br label %32

28:                                               ; preds = %3
  %29 = icmp eq i32 %1, 550
  %30 = icmp ne i8 %2, 25
  %or.cond = and i1 %29, %30
  br i1 %or.cond, label %31, label %32

31:                                               ; preds = %28
  tail call void (ptr, ptr, ...) @Curl_failf(ptr noundef nonnull %0, ptr noundef nonnull @.str.118) #10
  br label %58

32:                                               ; preds = %28, %.critedge
  switch i8 %2, label %58 [
    i8 23, label %33
    i8 24, label %50
    i8 25, label %54
  ]

33:                                               ; preds = %32
  %34 = load i64, ptr %4, align 8, !tbaa !147
  %.not46 = icmp eq i64 %34, -1
  br i1 %.not46, label %46, label %35

35:                                               ; preds = %33
  call void @llvm.lifetime.start.p0(i64 128, ptr nonnull %5) #10
  %36 = call i32 (ptr, i64, ptr, ...) @curl_msnprintf(ptr noundef nonnull %5, i64 noundef 128, ptr noundef nonnull @.str.119, i64 noundef %34) #10
  %37 = sext i32 %36 to i64
  %38 = getelementptr inbounds nuw i8, ptr %0, i64 2562
  %39 = load i64, ptr %38, align 2
  %40 = or i64 %39, 8388608
  store i64 %40, ptr %38, align 2
  %41 = call i32 @Curl_client_write(ptr noundef %0, i32 noundef 4, ptr noundef nonnull %5, i64 noundef %37) #10
  %42 = and i64 %39, 8388608
  %43 = load i64, ptr %38, align 2
  %44 = and i64 %43, -8388609
  %45 = or disjoint i64 %44, %42
  store i64 %45, ptr %38, align 2
  %.not47 = icmp eq i32 %41, 0
  call void @llvm.lifetime.end.p0(i64 128, ptr nonnull %5) #10
  br i1 %.not47, label %._crit_edge, label %58

._crit_edge:                                      ; preds = %35
  %.pre = load i64, ptr %4, align 8, !tbaa !147
  br label %46

46:                                               ; preds = %._crit_edge, %33
  %47 = phi i64 [ %.pre, %._crit_edge ], [ -1, %33 ]
  call void @Curl_pgrsSetDownloadSize(ptr noundef %0, i64 noundef %47) #10
  %48 = load ptr, ptr %6, align 8, !tbaa !107
  %49 = call fastcc i32 @ftp_state_rest(ptr noundef %0, ptr noundef %48)
  br label %58

50:                                               ; preds = %32
  %51 = load i64, ptr %4, align 8, !tbaa !147
  call void @Curl_pgrsSetDownloadSize(ptr noundef %0, i64 noundef %51) #10
  %52 = load i64, ptr %4, align 8, !tbaa !147
  %53 = call fastcc i32 @ftp_state_retr(ptr noundef %0, i64 noundef %52)
  br label %58

54:                                               ; preds = %32
  %55 = load i64, ptr %4, align 8, !tbaa !147
  %56 = getelementptr inbounds nuw i8, ptr %0, i64 4352
  store i64 %55, ptr %56, align 8, !tbaa !202
  %57 = call fastcc i32 @ftp_state_ul_setup(ptr noundef %0, i1 noundef zeroext true)
  br label %58

58:                                               ; preds = %46, %54, %50, %32, %35, %31
  %.0 = phi i32 [ %41, %35 ], [ 78, %31 ], [ %49, %46 ], [ %53, %50 ], [ %57, %54 ], [ 0, %32 ]
  call void @llvm.lifetime.end.p0(i64 8, ptr nonnull %4) #10
  ret i32 %.0
}